target datalayout = "e-m:e-p270:32:32-p271:32:32-p272:64:64-i64:64-i128:128-f80:128-n8:16:32:64-S128"
target triple = "x86_64-pc-linux-gnu"

%struct.mbedtls_ssl_ciphersuite_t = type { i32, ptr, i8, i8, i8, i8, i16, i16 }

@.str = private unnamed_addr constant [8 x i8] c"unknown\00", align 1

; Function Attrs: nounwind uwtable
define hidden ptr @mbedtls_ssl_ciphersuite_from_id(i32 noundef %0) #0 {
  %2 = alloca ptr, align 8
  %3 = alloca i32, align 4
  %4 = alloca ptr, align 8
  %5 = alloca i32, align 4
  store i32 %0, ptr %3, align 4, !tbaa !3
  call void @llvm.lifetime.start.p0(i64 8, ptr %4) #5
  store ptr @ciphersuite_definitions, ptr %4, align 8, !tbaa !10
  br label %6

6:                                                ; preds = %19, %1
  %7 = load ptr, ptr %4, align 8, !tbaa !10
  %8 = getelementptr inbounds nuw %struct.mbedtls_ssl_ciphersuite_t, ptr %7, i32 0, i32 0
  %9 = load i32, ptr %8, align 8, !tbaa !14
  %10 = icmp ne i32 %9, 0
  br i1 %10, label %11, label %22

11:                                               ; preds = %6
  %12 = load ptr, ptr %4, align 8, !tbaa !10
  %13 = getelementptr inbounds nuw %struct.mbedtls_ssl_ciphersuite_t, ptr %12, i32 0, i32 0
  %14 = load i32, ptr %13, align 8, !tbaa !14
  %15 = load i32, ptr %3, align 4, !tbaa !3
  %16 = icmp eq i32 %14, %15
  br i1 %16, label %17, label %19

17:                                               ; preds = %11
  %18 = load ptr, ptr %4, align 8, !tbaa !10
  store ptr %18, ptr %2, align 8
  store i32 1, ptr %5, align 4
  br label %23

19:                                               ; preds = %11
  %20 = load ptr, ptr %4, align 8, !tbaa !10
  %21 = getelementptr inbounds nuw %struct.mbedtls_ssl_ciphersuite_t, ptr %20, i32 1
  store ptr %21, ptr %4, align 8, !tbaa !10
  br label %6, !llvm.loop !18

22:                                               ; preds = %6
  store ptr null, ptr %2, align 8
  store i32 1, ptr %5, align 4
  br label %23

23:                                               ; preds = %22, %17
  call void @llvm.lifetime.end.p0(i64 8, ptr %4) #5
  %24 = load ptr, ptr %2, align 8
  ret ptr %24
}

; Function Attrs: nounwind uwtable
define hidden ptr @mbedtls_ssl_get_ciphersuite_name(i32 noundef %0) #0 {
  %2 = alloca ptr, align 8
  %3 = alloca i32, align 4
  %4 = alloca ptr, align 8
  %5 = alloca i32, align 4
  store i32 %0, ptr %3, align 4, !tbaa !3
  call void @llvm.lifetime.start.p0(i64 8, ptr %4) #5
  %6 = load i32, ptr %3, align 4, !tbaa !3
  %7 = call ptr @mbedtls_ssl_ciphersuite_from_id(i32 noundef %6)
  store ptr %7, ptr %4, align 8, !tbaa !10
  %8 = load ptr, ptr %4, align 8, !tbaa !10
  %9 = icmp eq ptr %8, null
  br i1 %9, label %10, label %11

10:                                               ; preds = %1
  store ptr @.str, ptr %2, align 8
  store i32 1, ptr %5, align 4
  br label %15

11:                                               ; preds = %1
  %12 = load ptr, ptr %4, align 8, !tbaa !10
  %13 = getelementptr inbounds nuw %struct.mbedtls_ssl_ciphersuite_t, ptr %12, i32 0, i32 1
  %14 = load ptr, ptr %13, align 8, !tbaa !20
  store ptr %14, ptr %2, align 8
  store i32 1, ptr %5, align 4
  br label %15

15:                                               ; preds = %11, %10
  call void @llvm.lifetime.end.p0(i64 8, ptr %4) #5
  %16 = load ptr, ptr %2, align 8
  ret ptr %16
}