; Function Attrs: nofree norecurse nosync nounwind memory(none) uwtable
define hidden ptr @mbedtls_ssl_get_ciphersuite_name(i32 noundef %0) local_unnamed_addr #1 {
  br label %2

2:                                                ; preds = %5, %1
  %3 = phi i32 [ 4866, %1 ], [ %7, %5 ]
  %.07.i = phi ptr [ @ciphersuite_definitions, %1 ], [ %6, %5 ]
  %4 = icmp eq i32 %3, %0
  br i1 %4, label %mbedtls_ssl_ciphersuite_from_id.exit, label %5

5:                                                ; preds = %2
  %6 = getelementptr inbounds nuw i8, ptr %.07.i, i64 24
  %7 = load i32, ptr %6, align 8, !tbaa !3
  %.not.i = icmp eq i32 %7, 0
  br i1 %.not.i, label %mbedtls_ssl_ciphersuite_from_id.exit.thread, label %2, !llvm.loop !11

mbedtls_ssl_ciphersuite_from_id.exit:             ; preds = %2
  %8 = getelementptr inbounds nuw i8, ptr %.07.i, i64 8
  %9 = load ptr, ptr %8, align 8, !tbaa !15
  br label %mbedtls_ssl_ciphersuite_from_id.exit.thread

mbedtls_ssl_ciphersuite_from_id.exit.thread:      ; preds = %5, %mbedtls_ssl_ciphersuite_from_id.exit
  %.0 = phi ptr [ %9, %mbedtls_ssl_ciphersuite_from_id.exit ], [ @.str, %5 ]
  ret ptr %.0
}